Certificate:
    Data:
        Version: 1 (0x0)
        Serial Number: 1048577 (0x100001)
        Signature Algorithm: md5WithRSAEncryption
        Issuer: O=cederigo AG, OU=dev/emailAddress=cederigo@gmail.com, L=Bern, C=CH, CN=cederigo.ath.cx
        Validity
            Not Before: Oct 16 10:49:38 2010 GMT
            Not After : Oct 16 10:49:38 2011 GMT
        Subject: C=CH, O=cederigo AG, OU=dev, CN=localhost
        Subject Public Key Info:
            Public Key Algorithm: rsaEncryption
            RSA Public Key: (1024 bit)
                Modulus (1024 bit):
                    00:b0:4d:b8:be:02:10:99:25:6b:bf:1a:c1:16:e5:
                    16:70:1b:b0:ae:39:f1:5e:67:d5:4e:42:b6:1c:d6:
                    82:b4:34:ca:02:d5:d6:d6:05:74:8a:6d:05:71:21:
                    62:79:7d:c8:36:23:34:95:cd:10:ed:a1:b6:88:fd:
                    5b:69:c6:bc:d7:1e:ce:b7:9d:9e:6e:b5:88:bf:b1:
                    e4:c3:0f:09:c0:75:fa:7f:eb:38:26:f6:e9:42:cd:
                    85:d6:85:b5:05:9e:2a:48:73:58:27:a0:bf:9c:46:
                    69:6b:4f:3a:4a:07:c5:9e:59:55:f9:22:48:dd:f7:
                    dd:6c:0c:fc:49:40:35:f7:11
                Exponent: 65537 (0x10001)
    Signature Algorithm: md5WithRSAEncryption
        3e:28:01:17:75:66:01:19:ae:30:2c:46:c2:c0:28:84:3a:8f:
        83:3c:e3:2b:3c:57:ca:54:6f:b1:a3:d3:13:46:a2:c5:66:93:
        bc:a8:d7:05:0d:08:5e:94:1e:ec:8a:8b:91:ee:11:b1:ec:55:
        73:b8:6c:78:96:85:88:18:7d:d9:ec:53:46:18:b6:62:fd:21:
        5d:ef:cd:75:eb:af:b4:31:47:93:45:1f:f8:07:cc:60:64:90:
        0b:0a:f4:bb:15:c8:e7:13:f6:9c:b9:d4:6f:74:5d:47:c4:5c:
        36:93:37:9c:21:35:15:f9:6d:d6:2c:d5:7a:8e:c7:a6:cc:d0:
        19:28
-----BEGIN CERTIFICATE-----
MIICMzCCAZwCAxAAATANBgkqhkiG9w0BAQQFADB9MRQwEgYDVQQKEwtjZWRlcmln
byBBRzEMMAoGA1UECxMDZGV2MSEwHwYJKoZIhvcNAQkBFhJjZWRlcmlnb0BnbWFp
bC5jb20xDTALBgNVBAcTBEJlcm4xCzAJBgNVBAYTAkNIMRgwFgYDVQQDEw9jZWRl
cmlnby5hdGguY3gwHhcNMTAxMDE2MTA0OTM4WhcNMTExMDE2MTA0OTM4WjBFMQsw
CQYDVQQGEwJDSDEUMBIGA1UEChMLY2VkZXJpZ28gQUcxDDAKBgNVBAsTA2RldjES
MBAGA1UEAxMJbG9jYWxob3N0MIGfMA0GCSqGSIb3DQEBAQUAA4GNADCBiQKBgQCw
Tbi+AhCZJWu/GsEW5RZwG7CuOfFeZ9VOQrYc1oK0NMoC1dbWBXSKbQVxIWJ5fcg2
IzSVzRDtobaI/VtpxrzXHs63nZ5utYi/seTDDwnAdfp/6zgm9ulCzYXWhbUFnipI
c1gnoL+cRmlrTzpKB8WeWVX5Ikjd991sDPxJQDX3EQIDAQABMA0GCSqGSIb3DQEB
BAUAA4GBAD4oARd1ZgEZrjAsRsLAKIQ6j4M84ys8V8pUb7Gj0xNGosVmk7yo1wUN
CF6UHuyKi5HuEbHsVXO4bHiWhYgYfdnsU0YYtmL9IV3vzXXrr7QxR5NFH/gHzGBk
kAsK9LsVyOcT9py51G90XUfEXDaTN5whNRX5bdYs1XqOx6bM0Bko
-----END CERTIFICATE-----
