Certificate:
    Data:
        Version: 1 (0x0)
        Serial Number: 1048578 (0x100002)
        Signature Algorithm: md5WithRSAEncryption
        Issuer: O=cederigo AG, OU=dev/emailAddress=cederigo@gmail.com, L=Bern, C=CH, CN=cederigo.ath.cx
        Validity
            Not Before: Oct 16 10:51:22 2010 GMT
            Not After : Oct 16 10:51:22 2011 GMT
        Subject: C=CH, O=cederigo AG, CN=localhost.client
        Subject Public Key Info:
            Public Key Algorithm: rsaEncryption
            RSA Public Key: (1024 bit)
                Modulus (1024 bit):
                    00:a6:c3:31:36:a4:47:89:2b:0b:84:ca:77:5d:ef:
                    ed:ec:9a:a6:19:b6:05:b8:28:2c:e8:92:ed:86:22:
                    99:a1:ee:7b:72:f1:06:17:c7:80:68:65:01:17:9e:
                    bc:6b:8b:4b:78:d7:5f:c4:5e:39:10:53:dc:2a:4f:
                    17:42:4b:30:7b:03:7d:a4:73:f9:25:b2:3f:78:8d:
                    c6:81:2b:3a:67:49:97:f7:9a:6c:e2:cc:5a:e3:9d:
                    ad:bf:8c:d1:57:4a:a7:c1:82:71:b6:85:20:fb:84:
                    90:f5:94:32:78:fd:f0:b7:70:3d:8d:49:2a:4d:7f:
                    11:51:bb:48:17:02:b0:4c:11
                Exponent: 65537 (0x10001)
    Signature Algorithm: md5WithRSAEncryption
        73:2e:e5:0e:a5:81:4c:1b:8d:a0:23:c9:8a:8d:61:a7:22:7f:
        51:5b:4a:29:f0:c3:19:bd:cc:99:de:dc:7d:81:e1:31:10:ac:
        ee:14:3f:d6:c3:86:af:79:24:05:3d:3b:01:64:0d:a1:87:a3:
        8f:c9:35:98:78:98:82:b3:63:e3:80:ff:ce:8f:55:15:f5:80:
        1a:3c:62:eb:cb:72:c5:b4:34:92:93:60:f9:3f:68:50:97:b8:
        a2:1c:f9:43:3b:e6:71:56:45:90:80:73:41:ee:fd:5b:83:1d:
        81:9a:9d:02:12:1c:08:01:95:47:71:1e:d1:9a:e3:dc:b1:cc:
        ef:39
-----BEGIN CERTIFICATE-----
MIICLDCCAZUCAxAAAjANBgkqhkiG9w0BAQQFADB9MRQwEgYDVQQKEwtjZWRlcmln
byBBRzEMMAoGA1UECxMDZGV2MSEwHwYJKoZIhvcNAQkBFhJjZWRlcmlnb0BnbWFp
bC5jb20xDTALBgNVBAcTBEJlcm4xCzAJBgNVBAYTAkNIMRgwFgYDVQQDEw9jZWRl
cmlnby5hdGguY3gwHhcNMTAxMDE2MTA1MTIyWhcNMTExMDE2MTA1MTIyWjA+MQsw
CQYDVQQGEwJDSDEUMBIGA1UEChMLY2VkZXJpZ28gQUcxGTAXBgNVBAMTEGxvY2Fs
aG9zdC5jbGllbnQwgZ8wDQYJKoZIhvcNAQEBBQADgY0AMIGJAoGBAKbDMTakR4kr
C4TKd13v7eyaphm2BbgoLOiS7YYimaHue3LxBhfHgGhlAReevGuLS3jXX8ReORBT
3CpPF0JLMHsDfaRz+SWyP3iNxoErOmdJl/eabOLMWuOdrb+M0VdKp8GCcbaFIPuE
kPWUMnj98LdwPY1JKk1/EVG7SBcCsEwRAgMBAAEwDQYJKoZIhvcNAQEEBQADgYEA
cy7lDqWBTBuNoCPJio1hpyJ/UVtKKfDDGb3Mmd7cfYHhMRCs7hQ/1sOGr3kkBT07
AWQNoYejj8k1mHiYgrNj44D/zo9VFfWAGjxi68tyxbQ0kpNg+T9oUJe4ohz5Qzvm
cVZFkIBzQe79W4MdgZqdAhIcCAGVR3Ee0Zrj3LHM7zk=
-----END CERTIFICATE-----
