Certificate:
    Data:
        Version: 1 (0x0)
        Serial Number: 1048577 (0x100001)
        Signature Algorithm: md5WithRSAEncryption
        Issuer: O=cederigo AG, OU=dev/emailAddress=cederigo@gmail.com, L=Bern, ST=State or Providence, C=CH, CN=cederigo
        Validity
            Not Before: Oct 15 08:06:54 2010 GMT
            Not After : Oct 15 08:06:54 2011 GMT
        Subject: C=CH, ST=State or Providence, O=cederigo AG, OU=dev, CN=localhost
        Subject Public Key Info:
            Public Key Algorithm: rsaEncryption
            RSA Public Key: (1024 bit)
                Modulus (1024 bit):
                    00:c0:9a:07:be:9c:21:62:bb:cb:cc:2c:73:82:2a:
                    5a:e3:40:8c:50:c9:2e:47:9d:7e:e0:96:9c:1a:de:
                    57:c5:26:a2:bd:2b:28:eb:13:dc:61:e7:db:aa:4f:
                    57:53:f2:89:b3:0b:08:94:cb:45:0c:50:7d:c1:d1:
                    18:e3:8e:7d:74:b3:9b:29:35:64:03:de:ee:f0:86:
                    1f:f6:49:c7:58:ad:97:f1:0e:80:71:69:8b:5f:fa:
                    a0:60:09:03:4b:53:48:15:5e:df:8b:97:aa:98:d2:
                    14:3a:65:10:bf:87:69:f0:65:f6:d9:d7:1e:3f:86:
                    a5:77:22:a9:02:ef:7d:4b:9d
                Exponent: 65537 (0x10001)
    Signature Algorithm: md5WithRSAEncryption
        89:b1:bf:ca:86:1f:14:85:53:f7:0d:dc:4a:e3:19:bc:e5:07:
        f7:0e:56:f9:99:08:74:72:1b:3d:28:02:4a:f9:82:d2:67:29:
        e0:9b:04:1d:1f:50:e6:ae:a8:b4:66:a3:d4:db:70:cd:b1:f4:
        aa:f5:8a:ab:1f:49:b1:74:99:2f:a1:1a:ba:4b:9a:f6:27:ad:
        95:d2:54:ff:38:35:be:f4:16:38:3e:41:77:7a:8c:68:1b:9f:
        b3:e8:52:3a:80:18:16:46:bb:c0:55:3c:3e:ee:fa:98:a8:84:
        59:8f:2f:00:04:60:8e:9f:27:32:f9:40:47:44:d3:1e:d2:ee:
        38:f4
-----BEGIN CERTIFICATE-----
MIICaTCCAdICAxAAATANBgkqhkiG9w0BAQQFADCBlDEUMBIGA1UEChMLY2VkZXJp
Z28gQUcxDDAKBgNVBAsTA2RldjEhMB8GCSqGSIb3DQEJARYSY2VkZXJpZ29AZ21h
aWwuY29tMQ0wCwYDVQQHEwRCZXJuMRwwGgYDVQQIExNTdGF0ZSBvciBQcm92aWRl
bmNlMQswCQYDVQQGEwJDSDERMA8GA1UEAxMIY2VkZXJpZ28wHhcNMTAxMDE1MDgw
NjU0WhcNMTExMDE1MDgwNjU0WjBjMQswCQYDVQQGEwJDSDEcMBoGA1UECBMTU3Rh
dGUgb3IgUHJvdmlkZW5jZTEUMBIGA1UEChMLY2VkZXJpZ28gQUcxDDAKBgNVBAsT
A2RldjESMBAGA1UEAxMJbG9jYWxob3N0MIGfMA0GCSqGSIb3DQEBAQUAA4GNADCB
iQKBgQDAmge+nCFiu8vMLHOCKlrjQIxQyS5HnX7glpwa3lfFJqK9KyjrE9xh59uq
T1dT8omzCwiUy0UMUH3B0Rjjjn10s5spNWQD3u7whh/2ScdYrZfxDoBxaYtf+qBg
CQNLU0gVXt+Ll6qY0hQ6ZRC/h2nwZfbZ1x4/hqV3IqkC731LnQIDAQABMA0GCSqG
SIb3DQEBBAUAA4GBAImxv8qGHxSFU/cN3ErjGbzlB/cOVvmZCHRyGz0oAkr5gtJn
KeCbBB0fUOauqLRmo9TbcM2x9Kr1iqsfSbF0mS+hGrpLmvYnrZXSVP84Nb70Fjg+
QXd6jGgbn7PoUjqAGBZGu8BVPD7u+piohFmPLwAEYI6fJzL5QEdE0x7S7jj0
-----END CERTIFICATE-----
