Certificate:
    Data:
        Version: 3 (0x2)
        Serial Number: 1048582 (0x100006)
        Signature Algorithm: md5WithRSAEncryption
        Issuer: O=cederigo AG, OU=dev/emailAddress=cederigo@gmail.com, L=Bern, C=CH, CN=cederigo.ath.cx
        Validity
            Not Before: Oct 18 10:46:18 2010 GMT
            Not After : Oct 18 10:46:18 2011 GMT
        Subject: C=CH, O=cederigo AG, CN=hihi
        Subject Public Key Info:
            Public Key Algorithm: rsaEncryption
            RSA Public Key: (1024 bit)
                Modulus (1024 bit):
                    00:e1:2d:94:be:0f:bb:c7:90:76:ce:ee:74:cc:5b:
                    16:e8:c1:d3:b8:52:ca:53:80:8d:50:bd:d5:a9:b3:
                    6f:c8:c7:bd:b0:ba:56:4a:7d:a5:ff:99:47:af:2e:
                    4d:67:68:67:01:e6:e7:ce:35:c8:d1:66:9f:48:4c:
                    bc:47:8f:92:16:61:b8:a6:35:58:8b:db:39:d5:e8:
                    36:dd:4a:e1:38:b9:c6:cf:7c:4d:ce:99:55:fe:01:
                    e5:23:26:47:a2:99:c5:24:e0:41:01:13:47:13:0b:
                    85:f4:e1:7c:42:87:44:ea:e0:d2:da:10:1c:6a:00:
                    2e:7a:68:fa:e1:28:44:94:57
                Exponent: 65537 (0x10001)
        X509v3 extensions:
            Netscape Cert Type: 
                SSL Client, S/MIME
            1.2.3.4: critical
                ..Hello_World_Extension
    Signature Algorithm: md5WithRSAEncryption
        7a:95:d1:38:bd:ae:d6:ef:3e:a7:76:55:c6:94:c9:10:47:12:
        bf:7e:e5:8e:81:eb:d2:8c:d1:0b:cf:aa:e1:e6:11:c5:c4:3b:
        04:66:de:75:32:c6:16:05:d5:8a:1c:81:64:bc:0b:6b:73:6d:
        45:70:65:21:1f:94:53:c5:eb:32:ef:96:45:10:52:ed:72:9f:
        60:9e:9f:05:a1:21:a8:13:a8:07:33:6d:37:06:32:06:10:29:
        23:c9:59:81:c7:71:e0:98:8c:fe:8c:ef:68:fb:f2:73:c0:6b:
        1a:d2:38:ac:13:ed:99:ac:76:ed:ed:34:11:bd:3f:3e:2d:b2:
        4f:02
-----BEGIN CERTIFICATE-----
MIICXzCCAcigAwIBAgIDEAAGMA0GCSqGSIb3DQEBBAUAMH0xFDASBgNVBAoTC2Nl
ZGVyaWdvIEFHMQwwCgYDVQQLEwNkZXYxITAfBgkqhkiG9w0BCQEWEmNlZGVyaWdv
QGdtYWlsLmNvbTENMAsGA1UEBxMEQmVybjELMAkGA1UEBhMCQ0gxGDAWBgNVBAMT
D2NlZGVyaWdvLmF0aC5jeDAeFw0xMDEwMTgxMDQ2MThaFw0xMTEwMTgxMDQ2MTha
MDIxCzAJBgNVBAYTAkNIMRQwEgYDVQQKEwtjZWRlcmlnbyBBRzENMAsGA1UEAxME
aGloaTCBnzANBgkqhkiG9w0BAQEFAAOBjQAwgYkCgYEA4S2Uvg+7x5B2zu50zFsW
6MHTuFLKU4CNUL3VqbNvyMe9sLpWSn2l/5lHry5NZ2hnAebnzjXI0WafSEy8R4+S
FmG4pjVYi9s51eg23UrhOLnGz3xNzplV/gHlIyZHopnFJOBBARNHEwuF9OF8QodE
6uDS2hAcagAuemj64ShElFcCAwEAAaM4MDYwEQYJYIZIAYb4QgEBBAQDAgWgMCEG
AyoDBAEB/wQXDBVIZWxsb19Xb3JsZF9FeHRlbnNpb24wDQYJKoZIhvcNAQEEBQAD
gYEAepXROL2u1u8+p3ZVxpTJEEcSv37ljoHr0ozRC8+q4eYRxcQ7BGbedTLGFgXV
ihyBZLwLa3NtRXBlIR+UU8XrMu+WRRBS7XKfYJ6fBaEhqBOoBzNtNwYyBhApI8lZ
gcdx4JiM/ozvaPvyc8BrGtI4rBPtmax27e00Eb0/Pi2yTwI=
-----END CERTIFICATE-----
