Certificate:
    Data:
        Version: 3 (0x2)
        Serial Number: 1048584 (0x100008)
        Signature Algorithm: md5WithRSAEncryption
        Issuer: O=cederigo AG, OU=dev/emailAddress=cederigo@gmail.com, L=Bern, C=CH, CN=cederigo.ath.cx
        Validity
            Not Before: Oct 18 10:52:09 2010 GMT
            Not After : Oct 18 10:52:09 2011 GMT
        Subject: C=CH, O=cederigo AG, CN=guguugugugugug
        Subject Public Key Info:
            Public Key Algorithm: rsaEncryption
            RSA Public Key: (1024 bit)
                Modulus (1024 bit):
                    00:e1:2d:94:be:0f:bb:c7:90:76:ce:ee:74:cc:5b:
                    16:e8:c1:d3:b8:52:ca:53:80:8d:50:bd:d5:a9:b3:
                    6f:c8:c7:bd:b0:ba:56:4a:7d:a5:ff:99:47:af:2e:
                    4d:67:68:67:01:e6:e7:ce:35:c8:d1:66:9f:48:4c:
                    bc:47:8f:92:16:61:b8:a6:35:58:8b:db:39:d5:e8:
                    36:dd:4a:e1:38:b9:c6:cf:7c:4d:ce:99:55:fe:01:
                    e5:23:26:47:a2:99:c5:24:e0:41:01:13:47:13:0b:
                    85:f4:e1:7c:42:87:44:ea:e0:d2:da:10:1c:6a:00:
                    2e:7a:68:fa:e1:28:44:94:57
                Exponent: 65537 (0x10001)
        X509v3 extensions:
            Netscape Cert Type: 
                SSL Client, S/MIME
            1.2.3.4: critical
                ..Hello_World_Extension
    Signature Algorithm: md5WithRSAEncryption
        85:48:f2:f0:73:63:0f:42:30:ff:c6:cb:2e:91:4f:5c:e0:92:
        2e:4f:a7:31:12:90:00:03:fc:d9:f2:cb:56:f4:8e:ee:ce:4c:
        ac:12:fb:a6:6b:61:4a:19:18:c8:2f:9a:86:55:e4:1f:f4:6d:
        35:46:ff:aa:9b:37:27:80:4a:04:1f:61:af:97:2e:54:d4:f8:
        79:d3:0d:d7:7b:58:25:37:20:8a:4e:ad:c5:c2:56:44:75:71:
        20:0b:7e:39:4b:19:2b:f4:e3:03:1d:fe:f1:e4:6c:d5:b1:fc:
        9f:e7:a3:61:06:8f:51:4b:ed:17:52:a7:7c:26:96:f8:2d:3d:
        a4:90
-----BEGIN CERTIFICATE-----
MIICaTCCAdKgAwIBAgIDEAAIMA0GCSqGSIb3DQEBBAUAMH0xFDASBgNVBAoTC2Nl
ZGVyaWdvIEFHMQwwCgYDVQQLEwNkZXYxITAfBgkqhkiG9w0BCQEWEmNlZGVyaWdv
QGdtYWlsLmNvbTENMAsGA1UEBxMEQmVybjELMAkGA1UEBhMCQ0gxGDAWBgNVBAMT
D2NlZGVyaWdvLmF0aC5jeDAeFw0xMDEwMTgxMDUyMDlaFw0xMTEwMTgxMDUyMDla
MDwxCzAJBgNVBAYTAkNIMRQwEgYDVQQKEwtjZWRlcmlnbyBBRzEXMBUGA1UEAxMO
Z3VndXVndWd1Z3VndWcwgZ8wDQYJKoZIhvcNAQEBBQADgY0AMIGJAoGBAOEtlL4P
u8eQds7udMxbFujB07hSylOAjVC91amzb8jHvbC6Vkp9pf+ZR68uTWdoZwHm5841
yNFmn0hMvEePkhZhuKY1WIvbOdXoNt1K4Ti5xs98Tc6ZVf4B5SMmR6KZxSTgQQET
RxMLhfThfEKHROrg0toQHGoALnpo+uEoRJRXAgMBAAGjODA2MBEGCWCGSAGG+EIB
AQQEAwIFoDAhBgMqAwQBAf8EFwwVSGVsbG9fV29ybGRfRXh0ZW5zaW9uMA0GCSqG
SIb3DQEBBAUAA4GBAIVI8vBzYw9CMP/Gyy6RT1zgki5PpzESkAAD/Nnyy1b0ju7O
TKwS+6ZrYUoZGMgvmoZV5B/0bTVG/6qbNyeASgQfYa+XLlTU+HnTDdd7WCU3IIpO
rcXCVkR1cSALfjlLGSv04wMd/vHkbNWx/J/no2EGj1FL7RdSp3wmlvgtPaSQ
-----END CERTIFICATE-----
