Certificate:
    Data:
        Version: 3 (0x2)
        Serial Number: 1048585 (0x100009)
        Signature Algorithm: md5WithRSAEncryption
        Issuer: O=cederigo AG, OU=dev/emailAddress=cederigo@gmail.com, L=Bern, C=CH, CN=cederigo.ath.cx
        Validity
            Not Before: Oct 18 11:31:13 2010 GMT
            Not After : Oct 18 11:31:13 2011 GMT
        Subject: C=CH, O=cederigo AG, CN=localhost with ext
        Subject Public Key Info:
            Public Key Algorithm: rsaEncryption
            RSA Public Key: (1024 bit)
                Modulus (1024 bit):
                    00:9a:8f:62:84:ce:04:0e:9f:03:26:d8:79:79:63:
                    cf:90:22:4f:d4:55:57:d9:22:7b:a1:79:d1:1c:f9:
                    8c:bd:ad:e5:1a:73:2e:83:7b:f3:bb:8d:0b:be:15:
                    bf:8c:44:d9:09:b2:1a:ec:5e:73:0b:61:bc:1d:6b:
                    23:97:09:50:97:5b:09:22:05:52:37:ea:5f:0d:2f:
                    20:82:df:61:9d:21:f8:fd:f4:30:b0:c7:9f:68:e8:
                    b8:b1:cc:bf:97:85:8b:dd:2e:1f:ba:c8:08:9e:9e:
                    16:66:4a:f8:62:aa:cf:fe:e6:fa:87:51:c4:e0:d4:
                    97:7a:2a:23:4f:c2:bc:37:35
                Exponent: 65537 (0x10001)
        X509v3 extensions:
            Netscape Cert Type: 
                SSL Client, S/MIME
            1.2.3.4: critical
                ..Hello_World_Extension
    Signature Algorithm: md5WithRSAEncryption
        86:9a:5e:18:56:bd:ca:ac:8a:be:de:a0:06:db:74:67:2c:42:
        b0:1d:e2:56:2e:4c:33:58:d7:32:06:23:86:04:54:43:79:9b:
        ac:9e:02:68:0b:8d:20:cf:58:bf:b9:e4:5f:6b:86:8b:6a:ef:
        f1:82:94:96:be:63:f9:83:0a:19:e8:82:c4:78:1d:f3:c3:89:
        be:5d:8b:67:61:66:83:a8:a9:77:3f:dc:cd:33:c3:88:7a:64:
        49:1d:ba:4c:52:e3:f4:6b:46:38:00:8c:f6:cc:31:58:9d:1a:
        f3:33:91:86:78:39:6a:0a:95:29:3e:88:79:e8:d4:78:76:c2:
        87:64
-----BEGIN CERTIFICATE-----
MIICbTCCAdagAwIBAgIDEAAJMA0GCSqGSIb3DQEBBAUAMH0xFDASBgNVBAoTC2Nl
ZGVyaWdvIEFHMQwwCgYDVQQLEwNkZXYxITAfBgkqhkiG9w0BCQEWEmNlZGVyaWdv
QGdtYWlsLmNvbTENMAsGA1UEBxMEQmVybjELMAkGA1UEBhMCQ0gxGDAWBgNVBAMT
D2NlZGVyaWdvLmF0aC5jeDAeFw0xMDEwMTgxMTMxMTNaFw0xMTEwMTgxMTMxMTNa
MEAxCzAJBgNVBAYTAkNIMRQwEgYDVQQKEwtjZWRlcmlnbyBBRzEbMBkGA1UEAxMS
bG9jYWxob3N0IHdpdGggZXh0MIGfMA0GCSqGSIb3DQEBAQUAA4GNADCBiQKBgQCa
j2KEzgQOnwMm2Hl5Y8+QIk/UVVfZInuhedEc+Yy9reUacy6De/O7jQu+Fb+MRNkJ
shrsXnMLYbwdayOXCVCXWwkiBVI36l8NLyCC32GdIfj99DCwx59o6LixzL+XhYvd
Lh+6yAienhZmSvhiqs/+5vqHUcTg1Jd6KiNPwrw3NQIDAQABozgwNjARBglghkgB
hvhCAQEEBAMCBaAwIQYDKgMEAQH/BBcMFUhlbGxvX1dvcmxkX0V4dGVuc2lvbjAN
BgkqhkiG9w0BAQQFAAOBgQCGml4YVr3KrIq+3qAG23RnLEKwHeJWLkwzWNcyBiOG
BFRDeZusngJoC40gz1i/ueRfa4aLau/xgpSWvmP5gwoZ6ILEeB3zw4m+XYtnYWaD
qKl3P9zNM8OIemRJHbpMUuP0a0Y4AIz2zDFYnRrzM5GGeDlqCpUpPoh56NR4dsKH
ZA==
-----END CERTIFICATE-----
