Certificate:
    Data:
        Version: 3 (0x2)
        Serial Number: 1048580 (0x100004)
        Signature Algorithm: md5WithRSAEncryption
        Issuer: O=cederigo AG, OU=dev/emailAddress=cederigo@gmail.com, L=Bern, C=CH, CN=cederigo.ath.cx
        Validity
            Not Before: Oct 18 10:34:33 2010 GMT
            Not After : Oct 18 10:34:33 2011 GMT
        Subject: C=CH, O=cederigo AG, CN=test
        Subject Public Key Info:
            Public Key Algorithm: rsaEncryption
            RSA Public Key: (1024 bit)
                Modulus (1024 bit):
                    00:e1:2d:94:be:0f:bb:c7:90:76:ce:ee:74:cc:5b:
                    16:e8:c1:d3:b8:52:ca:53:80:8d:50:bd:d5:a9:b3:
                    6f:c8:c7:bd:b0:ba:56:4a:7d:a5:ff:99:47:af:2e:
                    4d:67:68:67:01:e6:e7:ce:35:c8:d1:66:9f:48:4c:
                    bc:47:8f:92:16:61:b8:a6:35:58:8b:db:39:d5:e8:
                    36:dd:4a:e1:38:b9:c6:cf:7c:4d:ce:99:55:fe:01:
                    e5:23:26:47:a2:99:c5:24:e0:41:01:13:47:13:0b:
                    85:f4:e1:7c:42:87:44:ea:e0:d2:da:10:1c:6a:00:
                    2e:7a:68:fa:e1:28:44:94:57
                Exponent: 65537 (0x10001)
        X509v3 extensions:
            Netscape Cert Type: 
                SSL Client, S/MIME
    Signature Algorithm: md5WithRSAEncryption
        21:05:ce:34:78:e6:2c:9c:29:5a:82:f2:6f:31:de:82:80:7e:
        e0:50:cd:aa:b2:a6:73:aa:f9:fb:37:76:4f:98:0b:6b:15:46:
        27:fe:d8:57:bd:7e:de:f9:d1:50:f7:30:95:f0:0e:60:1b:a6:
        d7:f4:ce:4e:6b:7e:95:d3:60:26:5c:dd:2e:40:99:5f:de:a9:
        0d:07:62:fc:ba:e3:74:96:de:4d:36:bd:10:97:d2:f3:8e:d3:
        36:81:1d:df:0b:b2:27:c0:4a:5c:a8:31:66:6e:2d:0e:6d:a5:
        b9:8c:4a:6d:94:32:33:63:b6:e3:b6:28:fc:15:2e:2e:02:cf:
        d5:00
-----BEGIN CERTIFICATE-----
MIICPDCCAaWgAwIBAgIDEAAEMA0GCSqGSIb3DQEBBAUAMH0xFDASBgNVBAoTC2Nl
ZGVyaWdvIEFHMQwwCgYDVQQLEwNkZXYxITAfBgkqhkiG9w0BCQEWEmNlZGVyaWdv
QGdtYWlsLmNvbTENMAsGA1UEBxMEQmVybjELMAkGA1UEBhMCQ0gxGDAWBgNVBAMT
D2NlZGVyaWdvLmF0aC5jeDAeFw0xMDEwMTgxMDM0MzNaFw0xMTEwMTgxMDM0MzNa
MDIxCzAJBgNVBAYTAkNIMRQwEgYDVQQKEwtjZWRlcmlnbyBBRzENMAsGA1UEAxME
dGVzdDCBnzANBgkqhkiG9w0BAQEFAAOBjQAwgYkCgYEA4S2Uvg+7x5B2zu50zFsW
6MHTuFLKU4CNUL3VqbNvyMe9sLpWSn2l/5lHry5NZ2hnAebnzjXI0WafSEy8R4+S
FmG4pjVYi9s51eg23UrhOLnGz3xNzplV/gHlIyZHopnFJOBBARNHEwuF9OF8QodE
6uDS2hAcagAuemj64ShElFcCAwEAAaMVMBMwEQYJYIZIAYb4QgEBBAQDAgWgMA0G
CSqGSIb3DQEBBAUAA4GBACEFzjR45iycKVqC8m8x3oKAfuBQzaqypnOq+fs3dk+Y
C2sVRif+2Fe9ft750VD3MJXwDmAbptf0zk5rfpXTYCZc3S5AmV/eqQ0HYvy643SW
3k02vRCX0vOO0zaBHd8LsifASlyoMWZuLQ5tpbmMSm2UMjNjtuO2KPwVLi4Cz9UA
-----END CERTIFICATE-----
