Certificate:
    Data:
        Version: 3 (0x2)
        Serial Number: 1048581 (0x100005)
        Signature Algorithm: md5WithRSAEncryption
        Issuer: O=cederigo AG, OU=dev/emailAddress=cederigo@gmail.com, L=Bern, C=CH, CN=cederigo.ath.cx
        Validity
            Not Before: Oct 18 10:41:11 2010 GMT
            Not After : Oct 18 10:41:11 2011 GMT
        Subject: C=CH, O=cederigo AG, CN=testerli2
        Subject Public Key Info:
            Public Key Algorithm: rsaEncryption
            RSA Public Key: (1024 bit)
                Modulus (1024 bit):
                    00:e1:2d:94:be:0f:bb:c7:90:76:ce:ee:74:cc:5b:
                    16:e8:c1:d3:b8:52:ca:53:80:8d:50:bd:d5:a9:b3:
                    6f:c8:c7:bd:b0:ba:56:4a:7d:a5:ff:99:47:af:2e:
                    4d:67:68:67:01:e6:e7:ce:35:c8:d1:66:9f:48:4c:
                    bc:47:8f:92:16:61:b8:a6:35:58:8b:db:39:d5:e8:
                    36:dd:4a:e1:38:b9:c6:cf:7c:4d:ce:99:55:fe:01:
                    e5:23:26:47:a2:99:c5:24:e0:41:01:13:47:13:0b:
                    85:f4:e1:7c:42:87:44:ea:e0:d2:da:10:1c:6a:00:
                    2e:7a:68:fa:e1:28:44:94:57
                Exponent: 65537 (0x10001)
        X509v3 extensions:
            Netscape Cert Type: 
                SSL Client, S/MIME
            1.2.3.4: critical
                ..Hello World Extension
    Signature Algorithm: md5WithRSAEncryption
        ce:55:7a:ce:74:31:23:d1:51:5b:d4:ae:51:ef:7e:55:f3:38:
        c3:ce:4d:c3:16:2c:00:c3:46:b5:fe:54:a7:6e:c4:bd:91:3a:
        49:c1:7e:b4:37:4e:5c:39:fa:a1:7b:24:9a:40:b0:a6:26:7b:
        e3:43:6d:60:28:60:38:87:30:60:2c:80:1d:51:6b:df:c4:de:
        f1:25:5a:43:41:1e:b9:74:57:51:5c:8e:a1:49:47:b3:55:df:
        6b:d9:20:37:a9:68:ab:44:a2:32:49:8b:11:a1:07:f4:bf:d9:
        81:a0:89:d5:f0:c4:8c:90:a0:b7:48:c9:de:2b:75:12:bc:21:
        24:30
-----BEGIN CERTIFICATE-----
MIICZDCCAc2gAwIBAgIDEAAFMA0GCSqGSIb3DQEBBAUAMH0xFDASBgNVBAoTC2Nl
ZGVyaWdvIEFHMQwwCgYDVQQLEwNkZXYxITAfBgkqhkiG9w0BCQEWEmNlZGVyaWdv
QGdtYWlsLmNvbTENMAsGA1UEBxMEQmVybjELMAkGA1UEBhMCQ0gxGDAWBgNVBAMT
D2NlZGVyaWdvLmF0aC5jeDAeFw0xMDEwMTgxMDQxMTFaFw0xMTEwMTgxMDQxMTFa
MDcxCzAJBgNVBAYTAkNIMRQwEgYDVQQKEwtjZWRlcmlnbyBBRzESMBAGA1UEAxMJ
dGVzdGVybGkyMIGfMA0GCSqGSIb3DQEBAQUAA4GNADCBiQKBgQDhLZS+D7vHkHbO
7nTMWxbowdO4UspTgI1QvdWps2/Ix72wulZKfaX/mUevLk1naGcB5ufONcjRZp9I
TLxHj5IWYbimNViL2znV6DbdSuE4ucbPfE3OmVX+AeUjJkeimcUk4EEBE0cTC4X0
4XxCh0Tq4NLaEBxqAC56aPrhKESUVwIDAQABozgwNjARBglghkgBhvhCAQEEBAMC
BaAwIQYDKgMEAQH/BBcMFUhlbGxvIFdvcmxkIEV4dGVuc2lvbjANBgkqhkiG9w0B
AQQFAAOBgQDOVXrOdDEj0VFb1K5R735V8zjDzk3DFiwAw0a1/lSnbsS9kTpJwX60
N05cOfqheySaQLCmJnvjQ21gKGA4hzBgLIAdUWvfxN7xJVpDQR65dFdRXI6hSUez
Vd9r2SA3qWirRKIySYsRoQf0v9mBoInV8MSMkKC3SMneK3USvCEkMA==
-----END CERTIFICATE-----
