Certificate:
    Data:
        Version: 3 (0x2)
        Serial Number: 1048583 (0x100007)
        Signature Algorithm: md5WithRSAEncryption
        Issuer: O=cederigo AG, OU=dev/emailAddress=cederigo@gmail.com, L=Bern, C=CH, CN=cederigo.ath.cx
        Validity
            Not Before: Oct 18 10:49:04 2010 GMT
            Not After : Oct 18 10:49:04 2011 GMT
        Subject: C=CH, O=cederigo AG, CN=hihi2
        Subject Public Key Info:
            Public Key Algorithm: rsaEncryption
            RSA Public Key: (1024 bit)
                Modulus (1024 bit):
                    00:e1:2d:94:be:0f:bb:c7:90:76:ce:ee:74:cc:5b:
                    16:e8:c1:d3:b8:52:ca:53:80:8d:50:bd:d5:a9:b3:
                    6f:c8:c7:bd:b0:ba:56:4a:7d:a5:ff:99:47:af:2e:
                    4d:67:68:67:01:e6:e7:ce:35:c8:d1:66:9f:48:4c:
                    bc:47:8f:92:16:61:b8:a6:35:58:8b:db:39:d5:e8:
                    36:dd:4a:e1:38:b9:c6:cf:7c:4d:ce:99:55:fe:01:
                    e5:23:26:47:a2:99:c5:24:e0:41:01:13:47:13:0b:
                    85:f4:e1:7c:42:87:44:ea:e0:d2:da:10:1c:6a:00:
                    2e:7a:68:fa:e1:28:44:94:57
                Exponent: 65537 (0x10001)
        X509v3 extensions:
            Netscape Cert Type: 
                SSL Client, S/MIME
            1.2.3.4: critical
                ..Hello_World_Extension
    Signature Algorithm: md5WithRSAEncryption
        70:88:0b:e5:97:47:06:33:bb:bf:ec:45:4b:fb:27:9f:2d:b2:
        83:40:76:c2:13:5a:76:1b:62:f8:dd:dc:ba:7d:e4:e3:18:aa:
        97:c5:42:df:0d:eb:8e:3e:db:b8:fd:fe:f3:35:1b:36:d5:52:
        4c:f4:ea:a8:62:94:4f:aa:9f:ad:ce:50:54:17:57:cd:1a:27:
        9e:c9:1b:68:c4:31:b2:b1:94:9d:1b:4a:c2:1b:c7:9b:eb:bc:
        3f:d1:e2:46:1b:ab:c6:c1:ad:3f:39:d0:f1:61:c4:66:a9:d5:
        43:7a:40:a7:bb:d5:32:b4:c9:6d:2d:3d:64:bd:c6:38:7f:c9:
        83:ae
-----BEGIN CERTIFICATE-----
MIICYDCCAcmgAwIBAgIDEAAHMA0GCSqGSIb3DQEBBAUAMH0xFDASBgNVBAoTC2Nl
ZGVyaWdvIEFHMQwwCgYDVQQLEwNkZXYxITAfBgkqhkiG9w0BCQEWEmNlZGVyaWdv
QGdtYWlsLmNvbTENMAsGA1UEBxMEQmVybjELMAkGA1UEBhMCQ0gxGDAWBgNVBAMT
D2NlZGVyaWdvLmF0aC5jeDAeFw0xMDEwMTgxMDQ5MDRaFw0xMTEwMTgxMDQ5MDRa
MDMxCzAJBgNVBAYTAkNIMRQwEgYDVQQKEwtjZWRlcmlnbyBBRzEOMAwGA1UEAxMF
aGloaTIwgZ8wDQYJKoZIhvcNAQEBBQADgY0AMIGJAoGBAOEtlL4Pu8eQds7udMxb
FujB07hSylOAjVC91amzb8jHvbC6Vkp9pf+ZR68uTWdoZwHm5841yNFmn0hMvEeP
khZhuKY1WIvbOdXoNt1K4Ti5xs98Tc6ZVf4B5SMmR6KZxSTgQQETRxMLhfThfEKH
ROrg0toQHGoALnpo+uEoRJRXAgMBAAGjODA2MBEGCWCGSAGG+EIBAQQEAwIFoDAh
BgMqAwQBAf8EFwwVSGVsbG9fV29ybGRfRXh0ZW5zaW9uMA0GCSqGSIb3DQEBBAUA
A4GBAHCIC+WXRwYzu7/sRUv7J58tsoNAdsITWnYbYvjd3Lp95OMYqpfFQt8N644+
27j9/vM1GzbVUkz06qhilE+qn63OUFQXV80aJ57JG2jEMbKxlJ0bSsIbx5vrvD/R
4kYbq8bBrT850PFhxGap1UN6QKe71TK0yW0tPWS9xjh/yYOu
-----END CERTIFICATE-----
