Certificate:
    Data:
        Version: 1 (0x0)
        Serial Number: 1048579 (0x100003)
        Signature Algorithm: md5WithRSAEncryption
        Issuer: O=cederigo AG, OU=dev/emailAddress=cederigo@gmail.com, L=Bern, C=CH, CN=cederigo.ath.cx
        Validity
            Not Before: Oct 18 10:08:25 2010 GMT
            Not After : Oct 18 10:08:25 2011 GMT
        Subject: C=CH, O=cederigo AG, CN=testerli
        Subject Public Key Info:
            Public Key Algorithm: rsaEncryption
            RSA Public Key: (1024 bit)
                Modulus (1024 bit):
                    00:e1:2d:94:be:0f:bb:c7:90:76:ce:ee:74:cc:5b:
                    16:e8:c1:d3:b8:52:ca:53:80:8d:50:bd:d5:a9:b3:
                    6f:c8:c7:bd:b0:ba:56:4a:7d:a5:ff:99:47:af:2e:
                    4d:67:68:67:01:e6:e7:ce:35:c8:d1:66:9f:48:4c:
                    bc:47:8f:92:16:61:b8:a6:35:58:8b:db:39:d5:e8:
                    36:dd:4a:e1:38:b9:c6:cf:7c:4d:ce:99:55:fe:01:
                    e5:23:26:47:a2:99:c5:24:e0:41:01:13:47:13:0b:
                    85:f4:e1:7c:42:87:44:ea:e0:d2:da:10:1c:6a:00:
                    2e:7a:68:fa:e1:28:44:94:57
                Exponent: 65537 (0x10001)
    Signature Algorithm: md5WithRSAEncryption
        43:0e:c5:9d:5a:ca:75:4d:a6:04:85:43:8d:68:1a:18:54:c6:
        4f:55:50:54:d8:bf:8e:4b:72:0b:39:00:59:c3:38:98:80:b6:
        22:64:bc:5f:45:68:23:03:75:09:3a:d1:51:76:1e:9e:a6:d0:
        ac:a7:cb:b2:07:38:e7:00:48:f8:8e:02:ab:e1:bd:ba:55:0e:
        ce:a2:95:b8:b1:c7:79:35:ea:9c:80:a8:47:bf:b0:dc:58:ea:
        b8:37:bf:83:cb:27:d7:9d:32:ec:da:07:de:22:88:37:b4:fc:
        39:e2:e1:c5:0c:c9:0b:7b:8d:c9:ac:29:fc:b2:64:da:c4:dd:
        4f:cf
-----BEGIN CERTIFICATE-----
MIICJDCCAY0CAxAAAzANBgkqhkiG9w0BAQQFADB9MRQwEgYDVQQKEwtjZWRlcmln
byBBRzEMMAoGA1UECxMDZGV2MSEwHwYJKoZIhvcNAQkBFhJjZWRlcmlnb0BnbWFp
bC5jb20xDTALBgNVBAcTBEJlcm4xCzAJBgNVBAYTAkNIMRgwFgYDVQQDEw9jZWRl
cmlnby5hdGguY3gwHhcNMTAxMDE4MTAwODI1WhcNMTExMDE4MTAwODI1WjA2MQsw
CQYDVQQGEwJDSDEUMBIGA1UEChMLY2VkZXJpZ28gQUcxETAPBgNVBAMTCHRlc3Rl
cmxpMIGfMA0GCSqGSIb3DQEBAQUAA4GNADCBiQKBgQDhLZS+D7vHkHbO7nTMWxbo
wdO4UspTgI1QvdWps2/Ix72wulZKfaX/mUevLk1naGcB5ufONcjRZp9ITLxHj5IW
YbimNViL2znV6DbdSuE4ucbPfE3OmVX+AeUjJkeimcUk4EEBE0cTC4X04XxCh0Tq
4NLaEBxqAC56aPrhKESUVwIDAQABMA0GCSqGSIb3DQEBBAUAA4GBAEMOxZ1aynVN
pgSFQ41oGhhUxk9VUFTYv45Lcgs5AFnDOJiAtiJkvF9FaCMDdQk60VF2Hp6m0Kyn
y7IHOOcASPiOAqvhvbpVDs6ilbixx3k16pyAqEe/sNxY6rg3v4PLJ9edMuzaB94i
iDe0/Dni4cUMyQt7jcmsKfyyZNrE3U/P
-----END CERTIFICATE-----
